target datalayout = "e-m:e-p270:32:32-p271:32:32-p272:64:64-i64:64-i128:128-f80:128-n8:16:32:64-S128"
target triple = "x86_64-unknown-linux-gnu"

%struct.CommandLineOptions = type { i32, i32, i32, i32, i32, i32, i32, i32, i32, i32, %struct.anon, %struct.anon.0, i32, ptr }
%struct.anon = type { ptr, i32, i32 }
%struct.anon.0 = type { %struct.anon.1, ptr, i32, i32 }
%struct.anon.1 = type { i32, i32, i32, i32 }
%struct.Operation = type { i32, %union.anon }
%union.anon = type { %struct.Argument_VcField }
%struct.Argument_VcField = type { ptr, ptr, i32, ptr, i32 }

@.str.95 = private unnamed_addr constant [47 x i8] c"out of memory allocating space for option list\00", align 1

; Function Attrs: nounwind sspstrong uwtable
define internal ptr @safe_realloc_(ptr noundef %ptr, i64 noundef %size) #0 {
entry:
  %ptr.addr = alloca ptr, align 8
  %size.addr = alloca i64, align 8
  %oldptr = alloca ptr, align 8
  %newptr = alloca ptr, align 8
  store ptr %ptr, ptr %ptr.addr, align 8
  store i64 %size, ptr %size.addr, align 8
  %0 = load ptr, ptr %ptr.addr, align 8
  store ptr %0, ptr %oldptr, align 8
  %1 = load ptr, ptr %ptr.addr, align 8
  %2 = load i64, ptr %size.addr, align 8
  %call = call ptr @realloc(ptr noundef %1, i64 noundef %2) #13
  store ptr %call, ptr %newptr, align 8
  %3 = load i64, ptr %size.addr, align 8
  %cmp = icmp ugt i64 %3, 0
  br i1 %cmp, label %land.lhs.true, label %if.end

land.lhs.true:                                    ; preds = %entry
  %4 = load ptr, ptr %newptr, align 8
  %cmp1 = icmp eq ptr %4, null
  br i1 %cmp1, label %if.then, label %if.end

if.then:                                          ; preds = %land.lhs.true
  %5 = load ptr, ptr %oldptr, align 8
  call void @free(ptr noundef %5) #10
  br label %if.end

if.end:                                           ; preds = %if.then, %land.lhs.true, %entry
  %6 = load ptr, ptr %newptr, align 8
  ret ptr %6
}

; Function Attrs: nounwind sspstrong uwtable
define internal ptr @safe_realloc_mul_2op_(ptr noundef %ptr, i64 noundef %size1, i64 noundef %size2) #0 {
entry:
  %retval = alloca ptr, align 8
  %ptr.addr = alloca ptr, align 8
  %size1.addr = alloca i64, align 8
  %size2.addr = alloca i64, align 8
  store ptr %ptr, ptr %ptr.addr, align 8
  store i64 %size1, ptr %size1.addr, align 8
  store i64 %size2, ptr %size2.addr, align 8
  %0 = load i64, ptr %size1.addr, align 8
  %tobool = icmp ne i64 %0, 0
  br i1 %tobool, label %lor.lhs.false, label %if.then

lor.lhs.false:                                    ; preds = %entry
  %1 = load i64, ptr %size2.addr, align 8
  %tobool1 = icmp ne i64 %1, 0
  br i1 %tobool1, label %if.end, label %if.then

if.then:                                          ; preds = %lor.lhs.false, %entry
  %2 = load ptr, ptr %ptr.addr, align 8
  %call = call ptr @realloc(ptr noundef %2, i64 noundef 0) #13
  store ptr %call, ptr %retval, align 8
  br label %return

if.end:                                           ; preds = %lor.lhs.false
  %3 = load i64, ptr %size1.addr, align 8
  %4 = load i64, ptr %size2.addr, align 8
  %div = udiv i64 -1, %4
  %cmp = icmp ugt i64 %3, %div
  br i1 %cmp, label %if.then2, label %if.end3

if.then2:                                         ; preds = %if.end
  %5 = load ptr, ptr %ptr.addr, align 8
  call void @free(ptr noundef %5) #10
  store ptr null, ptr %retval, align 8
  br label %return

if.end3:                                          ; preds = %if.end
  %6 = load ptr, ptr %ptr.addr, align 8
  %7 = load i64, ptr %size1.addr, align 8
  %8 = load i64, ptr %size2.addr, align 8
  %mul = mul i64 %7, %8
  %call4 = call ptr @safe_realloc_(ptr noundef %6, i64 noundef %mul)
  store ptr %call4, ptr %retval, align 8
  br label %return

return:                                           ; preds = %if.end3, %if.then2, %if.then
  %9 = load ptr, ptr %retval, align 8
  ret ptr %9
}

; Function Attrs: nounwind sspstrong uwtable
define internal void @append_new_operation(ptr noundef %options, ptr noundef byval(%struct.Operation) align 8 %operation) #0 {
entry:
  %options.addr = alloca ptr, align 8
  %original_capacity = alloca i32, align 4
  store ptr %options, ptr %options.addr, align 8
  %0 = load ptr, ptr %options.addr, align 8
  %ops = getelementptr inbounds %struct.CommandLineOptions, ptr %0, i32 0, i32 10
  %capacity = getelementptr inbounds %struct.anon, ptr %ops, i32 0, i32 2
  %1 = load i32, ptr %capacity, align 4
  %cmp = icmp eq i32 %1, 0
  br i1 %cmp, label %if.then, label %if.end15

if.then:                                          ; preds = %entry
  %2 = load ptr, ptr %options.addr, align 8
  %ops1 = getelementptr inbounds %struct.CommandLineOptions, ptr %2, i32 0, i32 10
  %capacity2 = getelementptr inbounds %struct.anon, ptr %ops1, i32 0, i32 2
  store i32 50, ptr %capacity2, align 4
  %3 = load ptr, ptr %options.addr, align 8
  %ops3 = getelementptr inbounds %struct.CommandLineOptions, ptr %3, i32 0, i32 10
  %capacity4 = getelementptr inbounds %struct.anon, ptr %ops3, i32 0, i32 2
  %4 = load i32, ptr %capacity4, align 4
  %conv = zext i32 %4 to i64
  %mul = mul i64 48, %conv
  %call = call noalias ptr @malloc(i64 noundef %mul) #12
  %5 = load ptr, ptr %options.addr, align 8
  %ops5 = getelementptr inbounds %struct.CommandLineOptions, ptr %5, i32 0, i32 10
  %operations = getelementptr inbounds %struct.anon, ptr %ops5, i32 0, i32 0
  store ptr %call, ptr %operations, align 8
  %cmp6 = icmp eq ptr null, %call
  br i1 %cmp6, label %if.then8, label %if.end

if.then8:                                         ; preds = %if.then
  call void @die(ptr noundef @.str.95)
  br label %if.end

if.end:                                           ; preds = %if.then8, %if.then
  %6 = load ptr, ptr %options.addr, align 8
  %ops9 = getelementptr inbounds %struct.CommandLineOptions, ptr %6, i32 0, i32 10
  %operations10 = getelementptr inbounds %struct.anon, ptr %ops9, i32 0, i32 0
  %7 = load ptr, ptr %operations10, align 8
  %8 = load ptr, ptr %options.addr, align 8
  %ops11 = getelementptr inbounds %struct.CommandLineOptions, ptr %8, i32 0, i32 10
  %capacity12 = getelementptr inbounds %struct.anon, ptr %ops11, i32 0, i32 2
  %9 = load i32, ptr %capacity12, align 4
  %conv13 = zext i32 %9 to i64
  %mul14 = mul i64 48, %conv13
  call void @llvm.memset.p0.i64(ptr align 8 %7, i8 0, i64 %mul14, i1 false)
  br label %if.end15

if.end15:                                         ; preds = %if.end, %entry
  %10 = load ptr, ptr %options.addr, align 8
  %ops16 = getelementptr inbounds %struct.CommandLineOptions, ptr %10, i32 0, i32 10
  %capacity17 = getelementptr inbounds %struct.anon, ptr %ops16, i32 0, i32 2
  %11 = load i32, ptr %capacity17, align 4
  %12 = load ptr, ptr %options.addr, align 8
  %ops18 = getelementptr inbounds %struct.CommandLineOptions, ptr %12, i32 0, i32 10
  %num_operations = getelementptr inbounds %struct.anon, ptr %ops18, i32 0, i32 1
  %13 = load i32, ptr %num_operations, align 8
  %cmp19 = icmp ule i32 %11, %13
  br i1 %cmp19, label %if.then21, label %if.end51

if.then21:                                        ; preds = %if.end15
  %14 = load ptr, ptr %options.addr, align 8
  %ops22 = getelementptr inbounds %struct.CommandLineOptions, ptr %14, i32 0, i32 10
  %capacity23 = getelementptr inbounds %struct.anon, ptr %ops22, i32 0, i32 2
  %15 = load i32, ptr %capacity23, align 4
  store i32 %15, ptr %original_capacity, align 4
  %16 = load ptr, ptr %options.addr, align 8
  %ops24 = getelementptr inbounds %struct.CommandLineOptions, ptr %16, i32 0, i32 10
  %capacity25 = getelementptr inbounds %struct.anon, ptr %ops24, i32 0, i32 2
  %17 = load i32, ptr %capacity25, align 4
  %cmp26 = icmp ugt i32 %17, 2147483647
  br i1 %cmp26, label %if.then28, label %if.end29

if.then28:                                        ; preds = %if.then21
  call void @die(ptr noundef @.str.95)
  br label %if.end29

if.end29:                                         ; preds = %if.then28, %if.then21
  %18 = load ptr, ptr %options.addr, align 8
  %ops30 = getelementptr inbounds %struct.CommandLineOptions, ptr %18, i32 0, i32 10
  %capacity31 = getelementptr inbounds %struct.anon, ptr %ops30, i32 0, i32 2
  %19 = load i32, ptr %capacity31, align 4
  %mul32 = mul i32 %19, 2
  store i32 %mul32, ptr %capacity31, align 4
  %20 = load ptr, ptr %options.addr, align 8
  %ops33 = getelementptr inbounds %struct.CommandLineOptions, ptr %20, i32 0, i32 10
  %operations34 = getelementptr inbounds %struct.anon, ptr %ops33, i32 0, i32 0
  %21 = load ptr, ptr %operations34, align 8
  %22 = load ptr, ptr %options.addr, align 8
  %ops35 = getelementptr inbounds %struct.CommandLineOptions, ptr %22, i32 0, i32 10
  %capacity36 = getelementptr inbounds %struct.anon, ptr %ops35, i32 0, i32 2
  %23 = load i32, ptr %capacity36, align 4
  %conv37 = zext i32 %23 to i64
  %call38 = call ptr @safe_realloc_mul_2op_(ptr noundef %21, i64 noundef 48, i64 noundef %conv37)
  %24 = load ptr, ptr %options.addr, align 8
  %ops39 = getelementptr inbounds %struct.CommandLineOptions, ptr %24, i32 0, i32 10
  %operations40 = getelementptr inbounds %struct.anon, ptr %ops39, i32 0, i32 0
  store ptr %call38, ptr %operations40, align 8
  %cmp41 = icmp eq ptr null, %call38
  br i1 %cmp41, label %if.then43, label %if.end44

if.then43:                                        ; preds = %if.end29
  call void @die(ptr noundef @.str.95)
  br label %if.end44

if.end44:                                         ; preds = %if.then43, %if.end29
  %25 = load ptr, ptr %options.addr, align 8
  %ops45 = getelementptr inbounds %struct.CommandLineOptions, ptr %25, i32 0, i32 10
  %operations46 = getelementptr inbounds %struct.anon, ptr %ops45, i32 0, i32 0
  %26 = load ptr, ptr %operations46, align 8
  %27 = load i32, ptr %original_capacity, align 4
  %idx.ext = zext i32 %27 to i64
  %add.ptr = getelementptr inbounds %struct.Operation, ptr %26, i64 %idx.ext
  %28 = load ptr, ptr %options.addr, align 8
  %ops47 = getelementptr inbounds %struct.CommandLineOptions, ptr %28, i32 0, i32 10
  %capacity48 = getelementptr inbounds %struct.anon, ptr %ops47, i32 0, i32 2
  %29 = load i32, ptr %capacity48, align 4
  %30 = load i32, ptr %original_capacity, align 4
  %sub = sub i32 %29, %30
  %conv49 = zext i32 %sub to i64
  %mul50 = mul i64 48, %conv49
  call void @llvm.memset.p0.i64(ptr align 8 %add.ptr, i8 0, i64 %mul50, i1 false)
  br label %if.end51

if.end51:                                         ; preds = %if.end44, %if.end15
  %31 = load ptr, ptr %options.addr, align 8
  %ops52 = getelementptr inbounds %struct.CommandLineOptions, ptr %31, i32 0, i32 10
  %operations53 = getelementptr inbounds %struct.anon, ptr %ops52, i32 0, i32 0
  %32 = load ptr, ptr %operations53, align 8
  %33 = load ptr, ptr %options.addr, align 8
  %ops54 = getelementptr inbounds %struct.CommandLineOptions, ptr %33, i32 0, i32 10
  %num_operations55 = getelementptr inbounds %struct.anon, ptr %ops54, i32 0, i32 1
  %34 = load i32, ptr %num_operations55, align 8
  %inc = add i32 %34, 1
  store i32 %inc, ptr %num_operations55, align 8
  %idxprom = zext i32 %34 to i64
  %arrayidx = getelementptr inbounds %struct.Operation, ptr %32, i64 %idxprom
  call void @llvm.memcpy.p0.p0.i64(ptr align 8 %arrayidx, ptr align 8 %operation, i64 48, i1 false)
  ret void
}