; Function Attrs: nounwind sspstrong uwtable
define internal fastcc void @append_new_operation(ptr noundef captures(none) %options, ptr noundef readonly byval(%struct.Operation) align 8 captures(none) %operation) unnamed_addr #1 {
entry:
  %ops = getelementptr inbounds nuw i8, ptr %options, i64 40
  %capacity = getelementptr inbounds nuw i8, ptr %options, i64 52
  %0 = load i32, ptr %capacity, align 4
  %cmp = icmp eq i32 %0, 0
  br i1 %cmp, label %if.then, label %if.end15

if.then:                                          ; preds = %entry
  store i32 50, ptr %capacity, align 4
  %call = tail call noalias dereferenceable_or_null(2400) ptr @malloc(i64 noundef 2400) #24
  store ptr %call, ptr %ops, align 8
  %cmp6 = icmp eq ptr %call, null
  br i1 %cmp6, label %if.then8, label %if.end

if.then8:                                         ; preds = %if.then
  tail call void @die(ptr noundef nonnull @.str.95) #20
  %.pre = load ptr, ptr %ops, align 8
  %.pre24 = load i32, ptr %capacity, align 4
  %1 = zext i32 %.pre24 to i64
  %2 = mul nuw nsw i64 %1, 48
  br label %if.end

if.end:                                           ; preds = %if.then8, %if.then
  %conv13 = phi i64 [ %2, %if.then8 ], [ 2400, %if.then ]
  %3 = phi ptr [ %.pre, %if.then8 ], [ %call, %if.then ]
  tail call void @llvm.memset.p0.i64(ptr align 8 %3, i8 0, i64 %conv13, i1 false)
  %.pr = load i32, ptr %capacity, align 4
  br label %if.end15

if.end15:                                         ; preds = %if.end, %entry
  %4 = phi i32 [ %.pr, %if.end ], [ %0, %entry ]
  %num_operations = getelementptr inbounds nuw i8, ptr %options, i64 48
  %5 = load i32, ptr %num_operations, align 8
  %cmp19.not = icmp ugt i32 %4, %5
  br i1 %cmp19.not, label %if.end51, label %if.then21

if.then21:                                        ; preds = %if.end15
  %cmp26 = icmp slt i32 %4, 0
  br i1 %cmp26, label %if.then28, label %if.end29

if.then28:                                        ; preds = %if.then21
  tail call void @die(ptr noundef nonnull @.str.95) #20
  %.pre25 = load i32, ptr %capacity, align 4
  br label %if.end29

if.end29:                                         ; preds = %if.then28, %if.then21
  %6 = phi i32 [ %.pre25, %if.then28 ], [ %4, %if.then21 ]
  %mul32 = shl i32 %6, 1
  store i32 %mul32, ptr %capacity, align 4
  %7 = load ptr, ptr %ops, align 8
  %tobool1.not.i = icmp eq i32 %mul32, 0
  br i1 %tobool1.not.i, label %safe_realloc_mul_2op_.exit, label %if.end3.i

if.end3.i:                                        ; preds = %if.end29
  %conv37 = zext i32 %mul32 to i64
  %mul.i = mul nuw nsw i64 %conv37, 48
  %call.i.i = tail call ptr @realloc(ptr noundef %7, i64 noundef range(i64 24, 206158430161) %mul.i) #25
  %cmp1.i.i = icmp eq ptr %call.i.i, null
  br i1 %cmp1.i.i, label %safe_realloc_mul_2op_.exit.thread, label %safe_realloc_mul_2op_.exit.thread21

safe_realloc_mul_2op_.exit.thread21:              ; preds = %if.end3.i
  store ptr %call.i.i, ptr %ops, align 8
  br label %if.end44

safe_realloc_mul_2op_.exit.thread:                ; preds = %if.end3.i
  tail call void @free(ptr noundef %7) #20
  store ptr null, ptr %ops, align 8
  br label %if.then43

safe_realloc_mul_2op_.exit:                       ; preds = %if.end29
  %call.i = tail call ptr @realloc(ptr noundef %7, i64 noundef 0) #25
  store ptr %call.i, ptr %ops, align 8
  %cmp41 = icmp eq ptr %call.i, null
  br i1 %cmp41, label %if.then43, label %if.end44

if.then43:                                        ; preds = %safe_realloc_mul_2op_.exit.thread, %safe_realloc_mul_2op_.exit
  tail call void @die(ptr noundef nonnull @.str.95) #20
  %.pre26 = load ptr, ptr %ops, align 8
  br label %if.end44

if.end44:                                         ; preds = %safe_realloc_mul_2op_.exit.thread21, %if.then43, %safe_realloc_mul_2op_.exit
  %8 = phi ptr [ %call.i.i, %safe_realloc_mul_2op_.exit.thread21 ], [ %.pre26, %if.then43 ], [ %call.i, %safe_realloc_mul_2op_.exit ]
  %idx.ext = zext i32 %4 to i64
  %add.ptr = getelementptr inbounds nuw %struct.Operation, ptr %8, i64 %idx.ext
  %9 = load i32, ptr %capacity, align 4
  %sub = sub i32 %9, %4
  %conv49 = zext i32 %sub to i64
  %mul50 = mul nuw nsw i64 %conv49, 48
  tail call void @llvm.memset.p0.i64(ptr align 8 %add.ptr, i8 0, i64 %mul50, i1 false)
  %.pre27 = load i32, ptr %num_operations, align 8
  br label %if.end51

if.end51:                                         ; preds = %if.end44, %if.end15
  %10 = phi i32 [ %.pre27, %if.end44 ], [ %5, %if.end15 ]
  %11 = load ptr, ptr %ops, align 8
  %inc = add i32 %10, 1
  store i32 %inc, ptr %num_operations, align 8
  %idxprom = zext i32 %10 to i64
  %arrayidx = getelementptr inbounds nuw %struct.Operation, ptr %11, i64 %idxprom
  call void @llvm.memcpy.p0.p0.i64(ptr noundef nonnull align 8 dereferenceable(48) %arrayidx, ptr noundef nonnull align 8 dereferenceable(48) %operation, i64 48, i1 false)
  ret void
}